target datalayout = "e-m:e-p270:32:32-p271:32:32-p272:64:64-i64:64-i128:128-f80:128-n8:16:32:64-S128"
target triple = "x86_64-pc-linux-gnu"

@rb_eRuntimeError = external global i64, align 8
@.str.110 = private unnamed_addr constant [63 x i8] c"invalid YJIT option '%s' (--help will show valid yjit options)\00", align 1

; Function Attrs: nounwind sspstrong uwtable
define internal zeroext i1 @setup_yjit_options(ptr noundef %0) #0 {
  %2 = alloca ptr, align 8
  %3 = alloca i8, align 1
  store ptr %0, ptr %2, align 8, !tbaa !7
  call void @llvm.lifetime.start.p0(i64 1, ptr %3) #24
  %4 = load ptr, ptr %2, align 8, !tbaa !7
  %5 = call zeroext i1 @rb_yjit_parse_option(ptr noundef %4)
  %6 = zext i1 %5 to i8
  store i8 %6, ptr %3, align 1, !tbaa !81
  %7 = load i8, ptr %3, align 1, !tbaa !81, !range !94, !noundef !95
  %8 = trunc i8 %7 to i1
  br i1 %8, label %9, label %10

9:                                                ; preds = %1
  call void @llvm.lifetime.end.p0(i64 1, ptr %3) #24
  ret i1 true

10:                                               ; preds = %1
  %11 = load i64, ptr @rb_eRuntimeError, align 8, !tbaa !42
  %12 = load ptr, ptr %2, align 8, !tbaa !7
  call void (i64, ptr, ...) @rb_raise(i64 noundef %11, ptr noundef @.str.110, ptr noundef %12) #26
  unreachable
}