; Function Attrs: nounwind sspstrong uwtable
define internal fastcc void @setup_yjit_options(ptr noundef %0) unnamed_addr #0 {
  %2 = tail call zeroext i1 @rb_yjit_parse_option(ptr noundef %0) #25
  br i1 %2, label %3, label %4

3:                                                ; preds = %1
  ret void

4:                                                ; preds = %1
  %5 = load i64, ptr @rb_eRuntimeError, align 8, !tbaa !47
  tail call void (i64, ptr, ...) @rb_raise(i64 noundef %5, ptr noundef nonnull @.str.110, ptr noundef %0) #26
  unreachable
}